target datalayout = "e-m:e-p270:32:32-p271:32:32-p272:64:64-i64:64-i128:128-f80:128-n8:16:32:64-S128"
target triple = "x86_64-pc-linux-gnu"

@hf_h224_standard_client_id = internal global i32 0, align 4
@hf_h224_extended_client_id_list = internal global i32 0, align 4
@hf_h224_non_standard_client = internal global i32 0, align 4
@hf_h224_extended_client_id = internal global i32 0, align 4
@hf_h224_country_code = internal global i32 0, align 4
@hf_h224_extension = internal global i32 0, align 4
@hf_h224_manufacturer_code = internal global i32 0, align 4
@hf_h224_client_id_manufacturer = internal global i32 0, align 4

; Function Attrs: null_pointer_is_valid sspstrong uwtable
define internal i32 @dissect_h224_standard_clients_ids(ptr noundef %0, ptr noundef %1, i32 noundef %2, i8 noundef zeroext %3) #0 {
  %5 = alloca ptr, align 8
  %6 = alloca ptr, align 8
  %7 = alloca i32, align 4
  %8 = alloca i8, align 1
  %9 = alloca i32, align 4
  store ptr %0, ptr %5, align 8
  store ptr %1, ptr %6, align 8
  store i32 %2, ptr %7, align 4
  store i8 %3, ptr %8, align 1
  call void @llvm.lifetime.start.p0(i64 4, ptr %9) #3
  %10 = load i8, ptr %8, align 1
  %11 = zext i8 %10 to i32
  %12 = icmp eq i32 %11, 126
  br i1 %12, label %13, label %28

13:                                               ; preds = %4
  %14 = load ptr, ptr %6, align 8
  %15 = load i32, ptr @hf_h224_extended_client_id_list, align 4
  %16 = load ptr, ptr %5, align 8
  %17 = load i32, ptr %7, align 4
  %18 = call ptr @proto_tree_add_item(ptr noundef %14, i32 noundef %15, ptr noundef %16, i32 noundef %17, i32 noundef 1, i32 noundef 0)
  %19 = load i32, ptr %7, align 4
  %20 = add i32 %19, 1
  store i32 %20, ptr %7, align 4
  %21 = load ptr, ptr %6, align 8
  %22 = load i32, ptr @hf_h224_extended_client_id, align 4
  %23 = load ptr, ptr %5, align 8
  %24 = load i32, ptr %7, align 4
  %25 = call ptr @proto_tree_add_item(ptr noundef %21, i32 noundef %22, ptr noundef %23, i32 noundef %24, i32 noundef 1, i32 noundef 0)
  %26 = load i32, ptr %7, align 4
  %27 = add i32 %26, 1
  store i32 %27, ptr %7, align 4
  br label %82

28:                                               ; preds = %4
  %29 = load i8, ptr %8, align 1
  %30 = zext i8 %29 to i32
  %31 = icmp eq i32 %30, 127
  br i1 %31, label %32, label %73

32:                                               ; preds = %28
  %33 = load ptr, ptr %6, align 8
  %34 = load i32, ptr @hf_h224_non_standard_client, align 4
  %35 = load ptr, ptr %5, align 8
  %36 = load i32, ptr %7, align 4
  %37 = call ptr @proto_tree_add_item(ptr noundef %33, i32 noundef %34, ptr noundef %35, i32 noundef %36, i32 noundef 1, i32 noundef 0)
  %38 = load i32, ptr %7, align 4
  %39 = add i32 %38, 1
  store i32 %39, ptr %7, align 4
  %40 = load ptr, ptr %5, align 8
  %41 = load i32, ptr %7, align 4
  %42 = call i32 @tvb_get_uint32(ptr noundef %40, i32 noundef %41, i32 noundef 0)
  store i32 %42, ptr %9, align 4
  %43 = load ptr, ptr %6, align 8
  %44 = load i32, ptr @hf_h224_country_code, align 4
  %45 = load ptr, ptr %5, align 8
  %46 = load i32, ptr %7, align 4
  %47 = call ptr @proto_tree_add_item(ptr noundef %43, i32 noundef %44, ptr noundef %45, i32 noundef %46, i32 noundef 1, i32 noundef 0)
  %48 = load i32, ptr %7, align 4
  %49 = add i32 %48, 1
  store i32 %49, ptr %7, align 4
  %50 = load ptr, ptr %6, align 8
  %51 = load i32, ptr @hf_h224_extension, align 4
  %52 = load ptr, ptr %5, align 8
  %53 = load i32, ptr %7, align 4
  %54 = call ptr @proto_tree_add_item(ptr noundef %50, i32 noundef %51, ptr noundef %52, i32 noundef %53, i32 noundef 1, i32 noundef 0)
  %55 = load i32, ptr %7, align 4
  %56 = add i32 %55, 1
  store i32 %56, ptr %7, align 4
  %57 = load ptr, ptr %6, align 8
  %58 = load i32, ptr @hf_h224_manufacturer_code, align 4
  %59 = load ptr, ptr %5, align 8
  %60 = load i32, ptr %7, align 4
  %61 = sub i32 %60, 2
  %62 = load i32, ptr %9, align 4
  %63 = call ptr @proto_tree_add_uint(ptr noundef %57, i32 noundef %58, ptr noundef %59, i32 noundef %61, i32 noundef 4, i32 noundef %62)
  %64 = load i32, ptr %7, align 4
  %65 = add i32 %64, 2
  store i32 %65, ptr %7, align 4
  %66 = load ptr, ptr %6, align 8
  %67 = load i32, ptr @hf_h224_client_id_manufacturer, align 4
  %68 = load ptr, ptr %5, align 8
  %69 = load i32, ptr %7, align 4
  %70 = call ptr @proto_tree_add_item(ptr noundef %66, i32 noundef %67, ptr noundef %68, i32 noundef %69, i32 noundef 1, i32 noundef 0)
  %71 = load i32, ptr %7, align 4
  %72 = add i32 %71, 1
  store i32 %72, ptr %7, align 4
  br label %81

73:                                               ; preds = %28
  %74 = load ptr, ptr %6, align 8
  %75 = load i32, ptr @hf_h224_standard_client_id, align 4
  %76 = load ptr, ptr %5, align 8
  %77 = load i32, ptr %7, align 4
  %78 = call ptr @proto_tree_add_item(ptr noundef %74, i32 noundef %75, ptr noundef %76, i32 noundef %77, i32 noundef 1, i32 noundef 0)
  %79 = load i32, ptr %7, align 4
  %80 = add i32 %79, 1
  store i32 %80, ptr %7, align 4
  br label %81

81:                                               ; preds = %73, %32
  br label %82

82:                                               ; preds = %81, %13
  %83 = load i32, ptr %7, align 4
  call void @llvm.lifetime.end.p0(i64 4, ptr %9) #3
  ret i32 %83
}