; Function Attrs: null_pointer_is_valid sspstrong uwtable
define internal fastcc noundef i32 @dissect_h224_standard_clients_ids(ptr noundef %0, ptr noundef %1, i32 noundef %2, i8 noundef zeroext %3) unnamed_addr #0 {
  %5 = add i32 %2, 1
  switch i8 %3, label %27 [
    i8 126, label %6
    i8 127, label %12
  ]

6:                                                ; preds = %4
  %7 = load i32, ptr @hf_h224_extended_client_id_list, align 4
  %8 = tail call ptr @proto_tree_add_item(ptr noundef %1, i32 noundef %7, ptr noundef %0, i32 noundef %2, i32 noundef 1, i32 noundef 0)
  %9 = load i32, ptr @hf_h224_extended_client_id, align 4
  %10 = tail call ptr @proto_tree_add_item(ptr noundef %1, i32 noundef %9, ptr noundef %0, i32 noundef %5, i32 noundef 1, i32 noundef 0)
  %11 = add i32 %2, 2
  br label %30

12:                                               ; preds = %4
  %13 = load i32, ptr @hf_h224_non_standard_client, align 4
  %14 = tail call ptr @proto_tree_add_item(ptr noundef %1, i32 noundef %13, ptr noundef %0, i32 noundef %2, i32 noundef 1, i32 noundef 0)
  %15 = tail call i32 @tvb_get_uint32(ptr noundef %0, i32 noundef %5, i32 noundef 0)
  %16 = load i32, ptr @hf_h224_country_code, align 4
  %17 = tail call ptr @proto_tree_add_item(ptr noundef %1, i32 noundef %16, ptr noundef %0, i32 noundef %5, i32 noundef 1, i32 noundef 0)
  %18 = add i32 %2, 2
  %19 = load i32, ptr @hf_h224_extension, align 4
  %20 = tail call ptr @proto_tree_add_item(ptr noundef %1, i32 noundef %19, ptr noundef %0, i32 noundef %18, i32 noundef 1, i32 noundef 0)
  %21 = load i32, ptr @hf_h224_manufacturer_code, align 4
  %22 = tail call ptr @proto_tree_add_uint(ptr noundef %1, i32 noundef %21, ptr noundef %0, i32 noundef %5, i32 noundef 4, i32 noundef %15)
  %23 = add i32 %2, 5
  %24 = load i32, ptr @hf_h224_client_id_manufacturer, align 4
  %25 = tail call ptr @proto_tree_add_item(ptr noundef %1, i32 noundef %24, ptr noundef %0, i32 noundef %23, i32 noundef 1, i32 noundef 0)
  %26 = add i32 %2, 6
  br label %30

27:                                               ; preds = %4
  %28 = load i32, ptr @hf_h224_standard_client_id, align 4
  %29 = tail call ptr @proto_tree_add_item(ptr noundef %1, i32 noundef %28, ptr noundef %0, i32 noundef %2, i32 noundef 1, i32 noundef 0)
  br label %30

30:                                               ; preds = %12, %27, %6
  %.0 = phi i32 [ %11, %6 ], [ %26, %12 ], [ %5, %27 ]
  ret i32 %.0
}